target datalayout = "e-m:e-p270:32:32-p271:32:32-p272:64:64-i64:64-i128:128-f80:128-n8:16:32:64-S128"
target triple = "x86_64-pc-linux-gnu"

%class.anon.27 = type { i8 }

; Function Attrs: mustprogress uwtable
define internal noundef i32 @"_ZZZL20DOCTEST_ANON_FUNC_18vENK3$_0clEP9lua_StateENKUlS1_E_clES1_"(ptr noundef nonnull align 1 dereferenceable(1) %0, ptr noundef %1) #4 align 2 {
  %3 = alloca ptr, align 8
  %4 = alloca ptr, align 8
  %5 = alloca i32, align 4
  %6 = alloca ptr, align 8
  store ptr %0, ptr %3, align 8
  store ptr %1, ptr %4, align 8
  %7 = load ptr, ptr %4, align 8
  %8 = call noundef i32 @_Z8lua_typeP9lua_Statei(ptr noundef %7, i32 noundef 1)
  %9 = icmp eq i32 %8, 3
  br i1 %9, label %10, label %17

10:                                               ; preds = %2
  %11 = load ptr, ptr %4, align 8
  %12 = call noundef i32 @_Z18luaL_checkunsignedP9lua_Statei(ptr noundef %11, i32 noundef 1)
  store i32 %12, ptr %5, align 4
  %13 = load ptr, ptr %4, align 8
  %14 = load i32, ptr %5, align 4
  %15 = zext i32 %14 to i64
  %16 = inttoptr i64 %15 to ptr
  call void @_Z27lua_pushlightuserdatataggedP9lua_StatePvi(ptr noundef %13, ptr noundef %16, i32 noundef 0)
  br label %22

17:                                               ; preds = %2
  %18 = load ptr, ptr %4, align 8
  %19 = call noundef ptr @_Z13lua_topointerP9lua_Statei(ptr noundef %18, i32 noundef 1)
  store ptr %19, ptr %6, align 8
  %20 = load ptr, ptr %4, align 8
  %21 = load ptr, ptr %6, align 8
  call void @_Z27lua_pushlightuserdatataggedP9lua_StatePvi(ptr noundef %20, ptr noundef %21, i32 noundef 0)
  br label %22

22:                                               ; preds = %17, %10
  ret i32 1
}

; Function Attrs: mustprogress uwtable
define internal noundef i32 @"_ZZZL20DOCTEST_ANON_FUNC_18vENK3$_0clEP9lua_StateENUlS1_E_8__invokeES1_"(ptr noundef %0) #4 align 2 {
  %2 = alloca ptr, align 8
  %3 = alloca %class.anon.27, align 1
  store ptr %0, ptr %2, align 8
  %4 = load ptr, ptr %2, align 8
  %5 = call noundef i32 @"_ZZZL20DOCTEST_ANON_FUNC_18vENK3$_0clEP9lua_StateENKUlS1_E_clES1_"(ptr noundef nonnull align 1 dereferenceable(1) %3, ptr noundef %4)
  ret i32 %5
}