; Function Attrs: mustprogress uwtable
define internal noundef i32 @"_ZZZL20DOCTEST_ANON_FUNC_18vENK3$_0clEP9lua_StateENUlS1_E_8__invokeES1_"(ptr noundef %0) #4 align 2 {
  %2 = tail call noundef i32 @_Z8lua_typeP9lua_Statei(ptr noundef %0, i32 noundef 1)
  %3 = icmp eq i32 %2, 3
  br i1 %3, label %4, label %8

4:                                                ; preds = %1
  %5 = tail call noundef i32 @_Z18luaL_checkunsignedP9lua_Statei(ptr noundef %0, i32 noundef 1)
  %6 = zext i32 %5 to i64
  %7 = inttoptr i64 %6 to ptr
  br label %"_ZZZL20DOCTEST_ANON_FUNC_18vENK3$_0clEP9lua_StateENKUlS1_E_clES1_.exit"

8:                                                ; preds = %1
  %9 = tail call noundef ptr @_Z13lua_topointerP9lua_Statei(ptr noundef %0, i32 noundef 1)
  br label %"_ZZZL20DOCTEST_ANON_FUNC_18vENK3$_0clEP9lua_StateENKUlS1_E_clES1_.exit"

"_ZZZL20DOCTEST_ANON_FUNC_18vENK3$_0clEP9lua_StateENKUlS1_E_clES1_.exit": ; preds = %4, %8
  %.sink.i = phi ptr [ %9, %8 ], [ %7, %4 ]
  tail call void @_Z27lua_pushlightuserdatataggedP9lua_StatePvi(ptr noundef %0, ptr noundef %.sink.i, i32 noundef 0)
  ret i32 1
}